; Function Attrs: inlinehint nofree norecurse nosync nounwind memory(argmem: readwrite) uwtable
define internal void @rgb15to32_c(ptr noundef readonly captures(address) %0, ptr noundef writeonly captures(none) %1, i32 noundef %2) #3 {
  %4 = sdiv i32 %2, 2
  %5 = sext i32 %4 to i64
  %6 = getelementptr inbounds i16, ptr %0, i64 %5
  %7 = icmp sgt i32 %2, 1
  br i1 %7, label %.lr.ph, label %._crit_edge

.lr.ph:                                           ; preds = %3, %.lr.ph
  %.018 = phi ptr [ %28, %.lr.ph ], [ %1, %3 ]
  %.01617 = phi ptr [ %8, %.lr.ph ], [ %0, %3 ]
  %8 = getelementptr inbounds nuw i8, ptr %.01617, i64 2
  %9 = load i16, ptr %.01617, align 2, !tbaa !16
  %10 = shl i16 %9, 3
  %11 = lshr i16 %9, 2
  %12 = and i16 %11, 7
  %13 = or disjoint i16 %12, %10
  %14 = trunc i16 %13 to i8
  %15 = getelementptr inbounds nuw i8, ptr %.018, i64 1
  store i8 %14, ptr %.018, align 1, !tbaa !8
  %16 = and i16 %9, 992
  %17 = lshr exact i16 %16, 2
  %18 = lshr i16 %16, 7
  %19 = or disjoint i16 %17, %18
  %20 = trunc nuw i16 %19 to i8
  %21 = getelementptr inbounds nuw i8, ptr %.018, i64 2
  store i8 %20, ptr %15, align 1, !tbaa !8
  %22 = and i16 %9, 31744
  %23 = lshr exact i16 %22, 7
  %24 = lshr i16 %22, 12
  %25 = or disjoint i16 %23, %24
  %26 = trunc nuw i16 %25 to i8
  %27 = getelementptr inbounds nuw i8, ptr %.018, i64 3
  store i8 %26, ptr %21, align 1, !tbaa !8
  %28 = getelementptr inbounds nuw i8, ptr %.018, i64 4
  store i8 -1, ptr %27, align 1, !tbaa !8
  %29 = icmp ult ptr %8, %6
  br i1 %29, label %.lr.ph, label %._crit_edge, !llvm.loop !48

._crit_edge:                                      ; preds = %.lr.ph, %3
  ret void
}